; Function Attrs: mustprogress uwtable
define noundef ptr @_ZN7rocksdb18WritePreparedTxnDB16BeginTransactionERKNS_12WriteOptionsERKNS_18TransactionOptionsEPNS_11TransactionE(ptr noundef nonnull align 8 dereferenceable(1352) %this, ptr noundef nonnull align 8 dereferenceable(24) %write_options, ptr noundef nonnull align 8 dereferenceable(56) %txn_options, ptr noundef %old_txn) unnamed_addr #2 align 2 personality ptr @__gxx_personality_v0 {
entry:
  %cmp.not = icmp eq ptr %old_txn, null
  br i1 %cmp.not, label %if.else, label %if.then

if.then:                                          ; preds = %entry
  tail call void @_ZN7rocksdb24PessimisticTransactionDB23ReinitializeTransactionEPNS_11TransactionERKNS_12WriteOptionsERKNS_18TransactionOptionsE(ptr noundef nonnull align 8 dereferenceable(480) %this, ptr noundef nonnull %old_txn, ptr noundef nonnull align 8 dereferenceable(24) %write_options, ptr noundef nonnull align 8 dereferenceable(56) %txn_options)
  br label %return

if.else:                                          ; preds = %entry
  %call = tail call noalias noundef nonnull dereferenceable(584) ptr @_Znwm(i64 noundef 584) #25
  invoke void @_ZN7rocksdb16WritePreparedTxnC1EPNS_18WritePreparedTxnDBERKNS_12WriteOptionsERKNS_18TransactionOptionsE(ptr noundef nonnull align 8 dereferenceable(584) %call, ptr noundef nonnull %this, ptr noundef nonnull align 8 dereferenceable(24) %write_options, ptr noundef nonnull align 8 dereferenceable(56) %txn_options)
          to label %return unwind label %lpad

lpad:                                             ; preds = %if.else
  %0 = landingpad { ptr, i32 }
          cleanup
  tail call void @_ZdlPv(ptr noundef nonnull %call) #22
  resume { ptr, i32 } %0

return:                                           ; preds = %if.else, %if.then
  %retval.0 = phi ptr [ %old_txn, %if.then ], [ %call, %if.else ]
  ret ptr %retval.0
}